target datalayout = "e-m:e-p270:32:32-p271:32:32-p272:64:64-i64:64-i128:128-f80:128-n8:16:32:64-S128"
target triple = "x86_64-pc-linux-gnu"

%"class.std::unique_ptr" = type { %"struct.std::__uniq_ptr_data" }
%"struct.std::__uniq_ptr_data" = type { %"class.std::__uniq_ptr_impl" }
%"class.std::__uniq_ptr_impl" = type { %"class.std::tuple" }
%"class.std::tuple" = type { %"struct.std::_Tuple_impl" }
%"struct.std::_Tuple_impl" = type { %"struct.std::_Head_base.1" }
%"struct.std::_Head_base.1" = type { ptr }

; Function Attrs: inlinehint mustprogress nounwind uwtable
define linkonce_odr noundef nonnull align 8 dereferenceable(8) ptr @_ZSt3minImERKT_S2_S2_(ptr noundef nonnull align 8 dereferenceable(8) %0, ptr noundef nonnull align 8 dereferenceable(8) %1) #4 comdat {
  %3 = alloca ptr, align 8
  %4 = alloca ptr, align 8
  %5 = alloca ptr, align 8
  store ptr %0, ptr %4, align 8, !tbaa !109
  store ptr %1, ptr %5, align 8, !tbaa !109
  %6 = load ptr, ptr %5, align 8, !tbaa !109
  %7 = load i64, ptr %6, align 8, !tbaa !71
  %8 = load ptr, ptr %4, align 8, !tbaa !109
  %9 = load i64, ptr %8, align 8, !tbaa !71
  %10 = icmp ult i64 %7, %9
  br i1 %10, label %11, label %13

11:                                               ; preds = %2
  %12 = load ptr, ptr %5, align 8, !tbaa !109
  store ptr %12, ptr %3, align 8
  br label %15

13:                                               ; preds = %2
  %14 = load ptr, ptr %4, align 8, !tbaa !109
  store ptr %14, ptr %3, align 8
  br label %15

15:                                               ; preds = %13, %11
  %16 = load ptr, ptr %3, align 8
  ret ptr %16
}

; Function Attrs: mustprogress uwtable
define void @_ZN5folly10IOBufQueue10wrapBufferEPKvmm(ptr noundef nonnull align 8 dereferenceable(64) %0, ptr noundef %1, i64 noundef %2, i64 noundef %3) #0 align 2 personality ptr @__gxx_personality_v0 {
  %5 = alloca ptr, align 8
  %6 = alloca ptr, align 8
  %7 = alloca i64, align 8
  %8 = alloca i64, align 8
  %9 = alloca ptr, align 8
  %10 = alloca i64, align 8
  %11 = alloca i64, align 8
  %12 = alloca %"class.std::unique_ptr", align 8
  %13 = alloca ptr, align 8
  %14 = alloca i32, align 4
  store ptr %0, ptr %5, align 8, !tbaa !7
  store ptr %1, ptr %6, align 8, !tbaa !68
  store i64 %2, ptr %7, align 8, !tbaa !71
  store i64 %3, ptr %8, align 8, !tbaa !71
  %15 = load ptr, ptr %5, align 8
  call void @llvm.lifetime.start.p0(i64 8, ptr %9) #15
  %16 = load ptr, ptr %6, align 8, !tbaa !68
  store ptr %16, ptr %9, align 8, !tbaa !76
  br label %17

17:                                               ; preds = %26, %4
  %18 = load i64, ptr %7, align 8, !tbaa !71
  %19 = icmp ne i64 %18, 0
  br i1 %19, label %20, label %37

20:                                               ; preds = %17
  call void @llvm.lifetime.start.p0(i64 8, ptr %10) #15
  call void @llvm.lifetime.start.p0(i64 8, ptr %11) #15
  %21 = load i64, ptr %8, align 8, !tbaa !71
  store i64 %21, ptr %11, align 8, !tbaa !71
  %22 = call noundef nonnull align 8 dereferenceable(8) ptr @_ZSt3minImERKT_S2_S2_(ptr noundef nonnull align 8 dereferenceable(8) %7, ptr noundef nonnull align 8 dereferenceable(8) %11)
  %23 = load i64, ptr %22, align 8, !tbaa !71
  call void @llvm.lifetime.end.p0(i64 8, ptr %11) #15
  store i64 %23, ptr %10, align 8, !tbaa !71
  call void @llvm.lifetime.start.p0(i64 8, ptr %12) #15
  %24 = load ptr, ptr %9, align 8, !tbaa !76
  %25 = load i64, ptr %10, align 8, !tbaa !71
  call void @_ZN5folly5IOBuf10wrapBufferEPKvm(ptr dead_on_unwind writable sret(%"class.std::unique_ptr") align 8 %12, ptr noundef %24, i64 noundef %25)
  invoke void @_ZN5folly10IOBufQueue6appendEOSt10unique_ptrINS_5IOBufESt14default_deleteIS2_EEbb(ptr noundef nonnull align 8 dereferenceable(64) %15, ptr noundef nonnull align 8 dereferenceable(8) %12, i1 noundef zeroext false, i1 noundef zeroext false)
          to label %26 unwind label %33

26:                                               ; preds = %20
  call void @_ZNSt10unique_ptrIN5folly5IOBufESt14default_deleteIS1_EED2Ev(ptr noundef nonnull align 8 dereferenceable(8) %12) #15
  call void @llvm.lifetime.end.p0(i64 8, ptr %12) #15
  %27 = load i64, ptr %10, align 8, !tbaa !71
  %28 = load ptr, ptr %9, align 8, !tbaa !76
  %29 = getelementptr inbounds nuw i8, ptr %28, i64 %27
  store ptr %29, ptr %9, align 8, !tbaa !76
  %30 = load i64, ptr %10, align 8, !tbaa !71
  %31 = load i64, ptr %7, align 8, !tbaa !71
  %32 = sub i64 %31, %30
  store i64 %32, ptr %7, align 8, !tbaa !71
  call void @llvm.lifetime.end.p0(i64 8, ptr %10) #15
  br label %17, !llvm.loop !185

33:                                               ; preds = %20
  %34 = landingpad { ptr, i32 }
          cleanup
  %35 = extractvalue { ptr, i32 } %34, 0
  store ptr %35, ptr %13, align 8
  %36 = extractvalue { ptr, i32 } %34, 1
  store i32 %36, ptr %14, align 4
  call void @_ZNSt10unique_ptrIN5folly5IOBufESt14default_deleteIS1_EED2Ev(ptr noundef nonnull align 8 dereferenceable(8) %12) #15
  call void @llvm.lifetime.end.p0(i64 8, ptr %12) #15
  call void @llvm.lifetime.end.p0(i64 8, ptr %10) #15
  call void @llvm.lifetime.end.p0(i64 8, ptr %9) #15
  br label %38

37:                                               ; preds = %17
  call void @llvm.lifetime.end.p0(i64 8, ptr %9) #15
  ret void

38:                                               ; preds = %33
  %39 = load ptr, ptr %13, align 8
  %40 = load i32, ptr %14, align 4
  %41 = insertvalue { ptr, i32 } poison, ptr %39, 0
  %42 = insertvalue { ptr, i32 } %41, i32 %40, 1
  resume { ptr, i32 } %42
}