; Function Attrs: mustprogress uwtable
define void @_ZN5folly10IOBufQueue10wrapBufferEPKvmm(ptr noundef nonnull align 8 dereferenceable(64) %0, ptr noundef %1, i64 noundef %2, i64 noundef %3) local_unnamed_addr #8 align 2 personality ptr @__gxx_personality_v0 {
  %5 = alloca %"class.std::unique_ptr", align 8
  %.not13 = icmp eq i64 %2, 0
  br i1 %.not13, label %._crit_edge, label %.lr.ph

.lr.ph:                                           ; preds = %4, %_ZNSt10unique_ptrIN5folly5IOBufESt14default_deleteIS1_EED2Ev.exit
  %.015 = phi ptr [ %8, %_ZNSt10unique_ptrIN5folly5IOBufESt14default_deleteIS1_EED2Ev.exit ], [ %1, %4 ]
  %storemerge14 = phi i64 [ %9, %_ZNSt10unique_ptrIN5folly5IOBufESt14default_deleteIS1_EED2Ev.exit ], [ %2, %4 ]
  %.sroa.speculated = call i64 @llvm.umin.i64(i64 %3, i64 %storemerge14)
  call void @llvm.lifetime.start.p0(i64 8, ptr nonnull %5) #15
  call void @_ZN5folly5IOBuf10wrapBufferEPKvm(ptr dead_on_unwind nonnull writable sret(%"class.std::unique_ptr") align 8 %5, ptr noundef %.015, i64 noundef %.sroa.speculated)
  invoke void @_ZN5folly10IOBufQueue6appendEOSt10unique_ptrINS_5IOBufESt14default_deleteIS2_EEbb(ptr noundef nonnull align 8 dereferenceable(64) %0, ptr noundef nonnull align 8 dereferenceable(8) %5, i1 noundef zeroext false, i1 noundef zeroext false)
          to label %6 unwind label %10

6:                                                ; preds = %.lr.ph
  %7 = load ptr, ptr %5, align 8, !tbaa !28
  %.not.i = icmp eq ptr %7, null
  br i1 %.not.i, label %_ZNSt10unique_ptrIN5folly5IOBufESt14default_deleteIS1_EED2Ev.exit, label %_ZNKSt14default_deleteIN5folly5IOBufEEclEPS1_.exit.i

_ZNKSt14default_deleteIN5folly5IOBufEEclEPS1_.exit.i: ; preds = %6
  call void @_ZN5folly5IOBufD1Ev(ptr noundef nonnull align 8 dereferenceable(56) %7) #15
  call void @_ZN5folly5IOBufdlEPv(ptr noundef nonnull %7) #15
  br label %_ZNSt10unique_ptrIN5folly5IOBufESt14default_deleteIS1_EED2Ev.exit

_ZNSt10unique_ptrIN5folly5IOBufESt14default_deleteIS1_EED2Ev.exit: ; preds = %6, %_ZNKSt14default_deleteIN5folly5IOBufEEclEPS1_.exit.i
  call void @llvm.lifetime.end.p0(i64 8, ptr nonnull %5) #15
  %8 = getelementptr inbounds nuw i8, ptr %.015, i64 %.sroa.speculated
  %9 = sub i64 %storemerge14, %.sroa.speculated
  %.not = icmp eq i64 %9, 0
  br i1 %.not, label %._crit_edge, label %.lr.ph, !llvm.loop !131

10:                                               ; preds = %.lr.ph
  %11 = landingpad { ptr, i32 }
          cleanup
  call void @_ZNSt10unique_ptrIN5folly5IOBufESt14default_deleteIS1_EED2Ev(ptr noundef nonnull align 8 dereferenceable(8) %5) #15
  call void @llvm.lifetime.end.p0(i64 8, ptr nonnull %5) #15
  resume { ptr, i32 } %11

._crit_edge:                                      ; preds = %_ZNSt10unique_ptrIN5folly5IOBufESt14default_deleteIS1_EED2Ev.exit, %4
  ret void
}